target datalayout = "e-m:e-p270:32:32-p271:32:32-p272:64:64-i64:64-i128:128-f80:128-n8:16:32:64-S128"
target triple = "x86_64-unknown-linux-gnu"

; Function Attrs: mustprogress uwtable
define hidden void @_ZN3smt7context11internalizeEPKP4exprjb(ptr noundef nonnull align 8 dereferenceable(11616) %this, ptr noundef %exprs, i32 noundef %num_exprs, i1 noundef zeroext %gate_ctx) #5 align 2 {
entry:
  %this.addr = alloca ptr, align 8
  %exprs.addr = alloca ptr, align 8
  %num_exprs.addr = alloca i32, align 4
  %gate_ctx.addr = alloca i8, align 1
  %i = alloca i32, align 4
  store ptr %this, ptr %this.addr, align 8
  store ptr %exprs, ptr %exprs.addr, align 8
  store i32 %num_exprs, ptr %num_exprs.addr, align 4
  %frombool = zext i1 %gate_ctx to i8
  store i8 %frombool, ptr %gate_ctx.addr, align 1
  %this1 = load ptr, ptr %this.addr, align 8
  %0 = load ptr, ptr %exprs.addr, align 8
  %1 = load i32, ptr %num_exprs.addr, align 4
  call void @_ZN3smt7context16internalize_deepEPKP4exprj(ptr noundef nonnull align 8 dereferenceable(11616) %this1, ptr noundef %0, i32 noundef %1)
  store i32 0, ptr %i, align 4
  br label %for.cond

for.cond:                                         ; preds = %for.inc, %entry
  %2 = load i32, ptr %i, align 4
  %3 = load i32, ptr %num_exprs.addr, align 4
  %cmp = icmp ult i32 %2, %3
  br i1 %cmp, label %for.body, label %for.end

for.body:                                         ; preds = %for.cond
  %4 = load ptr, ptr %exprs.addr, align 8
  %5 = load i32, ptr %i, align 4
  %idxprom = zext i32 %5 to i64
  %arrayidx = getelementptr inbounds ptr, ptr %4, i64 %idxprom
  %6 = load ptr, ptr %arrayidx, align 8
  %7 = load i8, ptr %gate_ctx.addr, align 1
  %tobool = trunc i8 %7 to i1
  call void @_ZN3smt7context15internalize_recEP4exprb(ptr noundef nonnull align 8 dereferenceable(11616) %this1, ptr noundef %6, i1 noundef zeroext %tobool)
  br label %for.inc

for.inc:                                          ; preds = %for.body
  %8 = load i32, ptr %i, align 4
  %inc = add i32 %8, 1
  store i32 %inc, ptr %i, align 4
  br label %for.cond, !llvm.loop !10

for.end:                                          ; preds = %for.cond
  ret void
}