; Function Attrs: mustprogress uwtable
define hidden void @_ZN3smt7context11internalizeEPKP4exprjb(ptr noundef nonnull align 8 dereferenceable(11616) %this, ptr noundef %exprs, i32 noundef %num_exprs, i1 noundef zeroext %gate_ctx) local_unnamed_addr #3 align 2 {
entry:
  tail call void @_ZN3smt7context16internalize_deepEPKP4exprj(ptr noundef nonnull align 8 dereferenceable(11616) %this, ptr noundef %exprs, i32 noundef %num_exprs)
  %cmp5.not = icmp eq i32 %num_exprs, 0
  br i1 %cmp5.not, label %for.end, label %for.body.preheader

for.body.preheader:                               ; preds = %entry
  %wide.trip.count = zext i32 %num_exprs to i64
  br label %for.body

for.body:                                         ; preds = %for.body.preheader, %for.body
  %indvars.iv = phi i64 [ 0, %for.body.preheader ], [ %indvars.iv.next, %for.body ]
  %arrayidx = getelementptr inbounds ptr, ptr %exprs, i64 %indvars.iv
  %0 = load ptr, ptr %arrayidx, align 8
  tail call void @_ZN3smt7context15internalize_recEP4exprb(ptr noundef nonnull align 8 dereferenceable(11616) %this, ptr noundef %0, i1 noundef zeroext %gate_ctx)
  %indvars.iv.next = add nuw nsw i64 %indvars.iv, 1
  %exitcond.not = icmp eq i64 %indvars.iv.next, %wide.trip.count
  br i1 %exitcond.not, label %for.end, label %for.body, !llvm.loop !18

for.end:                                          ; preds = %for.body, %entry
  ret void
}